target datalayout = "e-m:e-p270:32:32-p271:32:32-p272:64:64-i64:64-i128:128-f80:128-n8:16:32:64-S128"
target triple = "x86_64-pc-linux-gnu"

%struct.Parser = type { ptr, ptr, i32, i32, i32, ptr, ptr, ptr, i32, i32, ptr, i32, ptr, i32, i32, i32, i32, i32, %struct.growable_comment_array, ptr, i32, i32, i32 }
%struct.growable_comment_array = type { ptr, i64, i64 }
%struct.tok_state = type { ptr, ptr, ptr, i32, ptr, ptr, ptr, ptr, i32, ptr, i32, i32, [100 x i32], i32, i32, ptr, ptr, i32, i32, i32, i32, i32, [200 x i8], [200 x i32], [200 x i32], ptr, [100 x i32], i32, i32, ptr, i32, ptr, ptr, ptr, ptr, ptr, ptr, ptr, ptr, i32, i32, ptr, i32, [150 x %struct._tokenizer_mode], i32, i32, i32, i32 }
%struct._tokenizer_mode = type { i32, i32, i32, i8, i32, i32, ptr, ptr, i32, i64, i64, i64, i64, ptr, i32, i32 }

@PyExc_SyntaxError = external global ptr, align 8
@.str.1 = private unnamed_addr constant [14 x i8] c"invalid token\00", align 1
@.str.2 = private unnamed_addr constant [29 x i8] c"unexpected EOF while parsing\00", align 1
@PyExc_IndentationError = external global ptr, align 8
@.str.3 = private unnamed_addr constant [52 x i8] c"unindent does not match any outer indentation level\00", align 1
@PyExc_KeyboardInterrupt = external global ptr, align 8
@PyExc_TabError = external global ptr, align 8
@.str.4 = private unnamed_addr constant [51 x i8] c"inconsistent use of tabs and spaces in indentation\00", align 1
@.str.5 = private unnamed_addr constant [31 x i8] c"too many levels of indentation\00", align 1
@.str.6 = private unnamed_addr constant [55 x i8] c"unexpected character after line continuation character\00", align 1
@PyExc_OverflowError = external global ptr, align 8
@.str.7 = private unnamed_addr constant [55 x i8] c"Parser column offset overflow - source line is too big\00", align 1
@.str.8 = private unnamed_addr constant [22 x i8] c"unknown parsing error\00", align 1
@.str.20 = private unnamed_addr constant [22 x i8] c"'%c' was never closed\00", align 1

; Function Attrs: inlinehint nounwind uwtable
define internal void @raise_unclosed_parentheses_error(ptr noundef %0) #4 {
  %2 = alloca ptr, align 8
  %3 = alloca i32, align 4
  %4 = alloca i32, align 4
  store ptr %0, ptr %2, align 8, !tbaa !10
  call void @llvm.lifetime.start.p0(i64 4, ptr %3) #7
  %5 = load ptr, ptr %2, align 8, !tbaa !10
  %6 = getelementptr inbounds nuw %struct.Parser, ptr %5, i32 0, i32 0
  %7 = load ptr, ptr %6, align 8, !tbaa !23
  %8 = getelementptr inbounds nuw %struct.tok_state, ptr %7, i32 0, i32 23
  %9 = load ptr, ptr %2, align 8, !tbaa !10
  %10 = getelementptr inbounds nuw %struct.Parser, ptr %9, i32 0, i32 0
  %11 = load ptr, ptr %10, align 8, !tbaa !23
  %12 = getelementptr inbounds nuw %struct.tok_state, ptr %11, i32 0, i32 21
  %13 = load i32, ptr %12, align 8, !tbaa !27
  %14 = sub i32 %13, 1
  %15 = sext i32 %14 to i64
  %16 = getelementptr [200 x i32], ptr %8, i64 0, i64 %15
  %17 = load i32, ptr %16, align 4, !tbaa !31
  store i32 %17, ptr %3, align 4, !tbaa !31
  call void @llvm.lifetime.start.p0(i64 4, ptr %4) #7
  %18 = load ptr, ptr %2, align 8, !tbaa !10
  %19 = getelementptr inbounds nuw %struct.Parser, ptr %18, i32 0, i32 0
  %20 = load ptr, ptr %19, align 8, !tbaa !23
  %21 = getelementptr inbounds nuw %struct.tok_state, ptr %20, i32 0, i32 24
  %22 = load ptr, ptr %2, align 8, !tbaa !10
  %23 = getelementptr inbounds nuw %struct.Parser, ptr %22, i32 0, i32 0
  %24 = load ptr, ptr %23, align 8, !tbaa !23
  %25 = getelementptr inbounds nuw %struct.tok_state, ptr %24, i32 0, i32 21
  %26 = load i32, ptr %25, align 8, !tbaa !27
  %27 = sub i32 %26, 1
  %28 = sext i32 %27 to i64
  %29 = getelementptr [200 x i32], ptr %21, i64 0, i64 %28
  %30 = load i32, ptr %29, align 4, !tbaa !31
  store i32 %30, ptr %4, align 4, !tbaa !31
  %31 = load ptr, ptr %2, align 8, !tbaa !10
  %32 = load ptr, ptr @PyExc_SyntaxError, align 8, !tbaa !4
  %33 = load i32, ptr %3, align 4, !tbaa !31
  %34 = sext i32 %33 to i64
  %35 = load i32, ptr %4, align 4, !tbaa !31
  %36 = sext i32 %35 to i64
  %37 = load i32, ptr %3, align 4, !tbaa !31
  %38 = sext i32 %37 to i64
  %39 = load ptr, ptr %2, align 8, !tbaa !10
  %40 = getelementptr inbounds nuw %struct.Parser, ptr %39, i32 0, i32 0
  %41 = load ptr, ptr %40, align 8, !tbaa !23
  %42 = getelementptr inbounds nuw %struct.tok_state, ptr %41, i32 0, i32 22
  %43 = load ptr, ptr %2, align 8, !tbaa !10
  %44 = getelementptr inbounds nuw %struct.Parser, ptr %43, i32 0, i32 0
  %45 = load ptr, ptr %44, align 8, !tbaa !23
  %46 = getelementptr inbounds nuw %struct.tok_state, ptr %45, i32 0, i32 21
  %47 = load i32, ptr %46, align 8, !tbaa !27
  %48 = sub i32 %47, 1
  %49 = sext i32 %48 to i64
  %50 = getelementptr [200 x i8], ptr %42, i64 0, i64 %49
  %51 = load i8, ptr %50, align 1, !tbaa !9
  %52 = sext i8 %51 to i32
  %53 = call ptr (ptr, ptr, i64, i64, i64, i64, ptr, ...) @RAISE_ERROR_KNOWN_LOCATION(ptr noundef %31, ptr noundef %32, i64 noundef %34, i64 noundef %36, i64 noundef %38, i64 noundef -1, ptr noundef @.str.20, i32 noundef %52)
  call void @llvm.lifetime.end.p0(i64 4, ptr %4) #7
  call void @llvm.lifetime.end.p0(i64 4, ptr %3) #7
  ret void
}

; Function Attrs: nounwind uwtable
define hidden i32 @_Pypegen_tokenizer_error(ptr noundef %0) #0 {
  %2 = alloca i32, align 4
  %3 = alloca ptr, align 8
  %4 = alloca ptr, align 8
  %5 = alloca ptr, align 8
  %6 = alloca i64, align 8
  %7 = alloca i32, align 4
  store ptr %0, ptr %3, align 8, !tbaa !10
  %8 = call ptr @PyErr_Occurred()
  %9 = icmp ne ptr %8, null
  br i1 %9, label %10, label %11

10:                                               ; preds = %1
  store i32 -1, ptr %2, align 4
  br label %94

11:                                               ; preds = %1
  call void @llvm.lifetime.start.p0(i64 8, ptr %4) #7
  store ptr null, ptr %4, align 8, !tbaa !11
  call void @llvm.lifetime.start.p0(i64 8, ptr %5) #7
  %12 = load ptr, ptr @PyExc_SyntaxError, align 8, !tbaa !4
  store ptr %12, ptr %5, align 8, !tbaa !4
  call void @llvm.lifetime.start.p0(i64 8, ptr %6) #7
  store i64 -1, ptr %6, align 8, !tbaa !13
  %13 = load ptr, ptr %3, align 8, !tbaa !10
  %14 = getelementptr inbounds nuw %struct.Parser, ptr %13, i32 0, i32 15
  store i32 1, ptr %14, align 8, !tbaa !15
  %15 = load ptr, ptr %3, align 8, !tbaa !10
  %16 = getelementptr inbounds nuw %struct.Parser, ptr %15, i32 0, i32 0
  %17 = load ptr, ptr %16, align 8, !tbaa !23
  %18 = getelementptr inbounds nuw %struct.tok_state, ptr %17, i32 0, i32 8
  %19 = load i32, ptr %18, align 8, !tbaa !24
  switch i32 %19, label %68 [
    i32 13, label %20
    i32 11, label %21
    i32 21, label %35
    i32 12, label %39
    i32 15, label %45
    i32 18, label %47
    i32 20, label %49
    i32 25, label %51
    i32 29, label %66
  ]

20:                                               ; preds = %11
  store ptr @.str.1, ptr %4, align 8, !tbaa !11
  br label %69

21:                                               ; preds = %11
  %22 = load ptr, ptr %3, align 8, !tbaa !10
  %23 = getelementptr inbounds nuw %struct.Parser, ptr %22, i32 0, i32 0
  %24 = load ptr, ptr %23, align 8, !tbaa !23
  %25 = getelementptr inbounds nuw %struct.tok_state, ptr %24, i32 0, i32 21
  %26 = load i32, ptr %25, align 8, !tbaa !27
  %27 = icmp ne i32 %26, 0
  br i1 %27, label %28, label %30

28:                                               ; preds = %21
  %29 = load ptr, ptr %3, align 8, !tbaa !10
  call void @raise_unclosed_parentheses_error(ptr noundef %29)
  br label %34

30:                                               ; preds = %21
  %31 = load ptr, ptr %3, align 8, !tbaa !10
  %32 = load ptr, ptr @PyExc_SyntaxError, align 8, !tbaa !4
  %33 = call ptr (ptr, ptr, i32, ptr, ...) @_PyPegen_raise_error(ptr noundef %31, ptr noundef %32, i32 noundef 0, ptr noundef @.str.2)
  br label %34

34:                                               ; preds = %30, %28
  store i32 -1, ptr %2, align 4
  store i32 1, ptr %7, align 4
  br label %93

35:                                               ; preds = %11
  %36 = load ptr, ptr %3, align 8, !tbaa !10
  %37 = load ptr, ptr @PyExc_IndentationError, align 8, !tbaa !4
  %38 = call ptr (ptr, ptr, i32, ptr, ...) @_PyPegen_raise_error(ptr noundef %36, ptr noundef %37, i32 noundef 0, ptr noundef @.str.3)
  store i32 -1, ptr %2, align 4
  store i32 1, ptr %7, align 4
  br label %93

39:                                               ; preds = %11
  %40 = call ptr @PyErr_Occurred()
  %41 = icmp ne ptr %40, null
  br i1 %41, label %44, label %42

42:                                               ; preds = %39
  %43 = load ptr, ptr @PyExc_KeyboardInterrupt, align 8, !tbaa !4
  call void @PyErr_SetNone(ptr noundef %43)
  br label %44

44:                                               ; preds = %42, %39
  store i32 -1, ptr %2, align 4
  store i32 1, ptr %7, align 4
  br label %93

45:                                               ; preds = %11
  %46 = call ptr @PyErr_NoMemory()
  store i32 -1, ptr %2, align 4
  store i32 1, ptr %7, align 4
  br label %93

47:                                               ; preds = %11
  %48 = load ptr, ptr @PyExc_TabError, align 8, !tbaa !4
  store ptr %48, ptr %5, align 8, !tbaa !4
  store ptr @.str.4, ptr %4, align 8, !tbaa !11
  br label %69

49:                                               ; preds = %11
  %50 = load ptr, ptr @PyExc_IndentationError, align 8, !tbaa !4
  store ptr %50, ptr %5, align 8, !tbaa !4
  store ptr @.str.5, ptr %4, align 8, !tbaa !11
  br label %69

51:                                               ; preds = %11
  %52 = load ptr, ptr %3, align 8, !tbaa !10
  %53 = getelementptr inbounds nuw %struct.Parser, ptr %52, i32 0, i32 0
  %54 = load ptr, ptr %53, align 8, !tbaa !23
  %55 = getelementptr inbounds nuw %struct.tok_state, ptr %54, i32 0, i32 1
  %56 = load ptr, ptr %55, align 8, !tbaa !28
  %57 = load ptr, ptr %3, align 8, !tbaa !10
  %58 = getelementptr inbounds nuw %struct.Parser, ptr %57, i32 0, i32 0
  %59 = load ptr, ptr %58, align 8, !tbaa !23
  %60 = getelementptr inbounds nuw %struct.tok_state, ptr %59, i32 0, i32 0
  %61 = load ptr, ptr %60, align 8, !tbaa !29
  %62 = ptrtoint ptr %56 to i64
  %63 = ptrtoint ptr %61 to i64
  %64 = sub i64 %62, %63
  %65 = sub i64 %64, 1
  store i64 %65, ptr %6, align 8, !tbaa !13
  store ptr @.str.6, ptr %4, align 8, !tbaa !11
  br label %69

66:                                               ; preds = %11
  %67 = load ptr, ptr @PyExc_OverflowError, align 8, !tbaa !4
  call void @PyErr_SetString(ptr noundef %67, ptr noundef @.str.7)
  store i32 -1, ptr %2, align 4
  store i32 1, ptr %7, align 4
  br label %93

68:                                               ; preds = %11
  store ptr @.str.8, ptr %4, align 8, !tbaa !11
  br label %69

69:                                               ; preds = %68, %51, %49, %47, %20
  %70 = load ptr, ptr %3, align 8, !tbaa !10
  %71 = load ptr, ptr %5, align 8, !tbaa !4
  %72 = load ptr, ptr %3, align 8, !tbaa !10
  %73 = getelementptr inbounds nuw %struct.Parser, ptr %72, i32 0, i32 0
  %74 = load ptr, ptr %73, align 8, !tbaa !23
  %75 = getelementptr inbounds nuw %struct.tok_state, ptr %74, i32 0, i32 17
  %76 = load i32, ptr %75, align 8, !tbaa !30
  %77 = sext i32 %76 to i64
  %78 = load i64, ptr %6, align 8, !tbaa !13
  %79 = icmp sge i64 %78, 0
  br i1 %79, label %80, label %82

80:                                               ; preds = %69
  %81 = load i64, ptr %6, align 8, !tbaa !13
  br label %83

82:                                               ; preds = %69
  br label %83

83:                                               ; preds = %82, %80
  %84 = phi i64 [ %81, %80 ], [ 0, %82 ]
  %85 = load ptr, ptr %3, align 8, !tbaa !10
  %86 = getelementptr inbounds nuw %struct.Parser, ptr %85, i32 0, i32 0
  %87 = load ptr, ptr %86, align 8, !tbaa !23
  %88 = getelementptr inbounds nuw %struct.tok_state, ptr %87, i32 0, i32 17
  %89 = load i32, ptr %88, align 8, !tbaa !30
  %90 = sext i32 %89 to i64
  %91 = load ptr, ptr %4, align 8, !tbaa !11
  %92 = call ptr (ptr, ptr, i64, i64, i64, i64, ptr, ...) @RAISE_ERROR_KNOWN_LOCATION(ptr noundef %70, ptr noundef %71, i64 noundef %77, i64 noundef %84, i64 noundef %90, i64 noundef -1, ptr noundef %91)
  store i32 -1, ptr %2, align 4
  store i32 1, ptr %7, align 4
  br label %93

93:                                               ; preds = %83, %66, %45, %44, %35, %34
  call void @llvm.lifetime.end.p0(i64 8, ptr %6) #7
  call void @llvm.lifetime.end.p0(i64 8, ptr %5) #7
  call void @llvm.lifetime.end.p0(i64 8, ptr %4) #7
  br label %94

94:                                               ; preds = %93, %10
  %95 = load i32, ptr %2, align 4
  ret i32 %95
}