; Function Attrs: nounwind uwtable
define hidden noundef i32 @_Pypegen_tokenizer_error(ptr noundef %0) local_unnamed_addr #0 {
  %2 = tail call ptr @PyErr_Occurred() #7
  %.not = icmp eq ptr %2, null
  br i1 %.not, label %3, label %58

3:                                                ; preds = %1
  %4 = load ptr, ptr @PyExc_SyntaxError, align 8, !tbaa !4
  %5 = getelementptr inbounds nuw i8, ptr %0, i64 96
  store i32 1, ptr %5, align 8, !tbaa !10
  %6 = load ptr, ptr %0, align 8, !tbaa !19
  %7 = getelementptr inbounds nuw i8, ptr %6, i64 64
  %8 = load i32, ptr %7, align 8, !tbaa !20
  switch i32 %8, label %52 [
    i32 13, label %53
    i32 11, label %9
    i32 21, label %29
    i32 12, label %32
    i32 15, label %36
    i32 18, label %38
    i32 20, label %40
    i32 25, label %42
    i32 29, label %50
  ]

9:                                                ; preds = %3
  %10 = getelementptr inbounds nuw i8, ptr %6, i64 528
  %11 = load i32, ptr %10, align 8, !tbaa !24
  %.not19 = icmp eq i32 %11, 0
  br i1 %.not19, label %27, label %12

12:                                               ; preds = %9
  %13 = getelementptr inbounds nuw i8, ptr %6, i64 732
  %14 = add i32 %11, -1
  %15 = sext i32 %14 to i64
  %16 = getelementptr [200 x i32], ptr %13, i64 0, i64 %15
  %17 = load i32, ptr %16, align 4, !tbaa !25
  %18 = getelementptr inbounds nuw i8, ptr %6, i64 1532
  %19 = getelementptr [200 x i32], ptr %18, i64 0, i64 %15
  %20 = load i32, ptr %19, align 4, !tbaa !25
  %21 = sext i32 %17 to i64
  %22 = sext i32 %20 to i64
  %23 = getelementptr inbounds nuw i8, ptr %6, i64 532
  %24 = getelementptr [200 x i8], ptr %23, i64 0, i64 %15
  %25 = load i8, ptr %24, align 1, !tbaa !9
  %26 = sext i8 %25 to i32
  tail call void (ptr, ptr, i64, i64, i64, i64, ptr, ...) @RAISE_ERROR_KNOWN_LOCATION(ptr noundef nonnull %0, ptr noundef %4, i64 noundef %21, i64 noundef %22, i64 noundef %21, i64 noundef -1, ptr noundef nonnull @.str.20, i32 noundef %26)
  br label %58

27:                                               ; preds = %9
  %28 = tail call ptr (ptr, ptr, i32, ptr, ...) @_PyPegen_raise_error(ptr noundef nonnull %0, ptr noundef %4, i32 noundef 0, ptr noundef nonnull @.str.2)
  br label %58

29:                                               ; preds = %3
  %30 = load ptr, ptr @PyExc_IndentationError, align 8, !tbaa !4
  %31 = tail call ptr (ptr, ptr, i32, ptr, ...) @_PyPegen_raise_error(ptr noundef nonnull %0, ptr noundef %30, i32 noundef 0, ptr noundef nonnull @.str.3)
  br label %58

32:                                               ; preds = %3
  %33 = tail call ptr @PyErr_Occurred() #7
  %.not18 = icmp eq ptr %33, null
  br i1 %.not18, label %34, label %58

34:                                               ; preds = %32
  %35 = load ptr, ptr @PyExc_KeyboardInterrupt, align 8, !tbaa !4
  tail call void @PyErr_SetNone(ptr noundef %35) #7
  br label %58

36:                                               ; preds = %3
  %37 = tail call ptr @PyErr_NoMemory() #7
  br label %58

38:                                               ; preds = %3
  %39 = load ptr, ptr @PyExc_TabError, align 8, !tbaa !4
  br label %53

40:                                               ; preds = %3
  %41 = load ptr, ptr @PyExc_IndentationError, align 8, !tbaa !4
  br label %53

42:                                               ; preds = %3
  %43 = getelementptr inbounds nuw i8, ptr %6, i64 8
  %44 = load ptr, ptr %43, align 8, !tbaa !26
  %45 = load ptr, ptr %6, align 8, !tbaa !27
  %46 = ptrtoint ptr %44 to i64
  %47 = ptrtoint ptr %45 to i64
  %48 = xor i64 %47, -1
  %49 = add i64 %48, %46
  br label %53

50:                                               ; preds = %3
  %51 = load ptr, ptr @PyExc_OverflowError, align 8, !tbaa !4
  tail call void @PyErr_SetString(ptr noundef %51, ptr noundef nonnull @.str.7) #7
  br label %58

52:                                               ; preds = %3
  br label %53

53:                                               ; preds = %3, %52, %42, %40, %38
  %.016 = phi ptr [ @.str.8, %52 ], [ @.str.6, %42 ], [ @.str.5, %40 ], [ @.str.4, %38 ], [ @.str.1, %3 ]
  %.015 = phi ptr [ %4, %52 ], [ %4, %42 ], [ %41, %40 ], [ %39, %38 ], [ %4, %3 ]
  %.0 = phi i64 [ -1, %52 ], [ %49, %42 ], [ -1, %40 ], [ -1, %38 ], [ -1, %3 ]
  %54 = getelementptr inbounds nuw i8, ptr %6, i64 512
  %55 = load i32, ptr %54, align 8, !tbaa !28
  %56 = sext i32 %55 to i64
  %57 = tail call i64 @llvm.smax.i64(i64 %.0, i64 0)
  tail call void (ptr, ptr, i64, i64, i64, i64, ptr, ...) @RAISE_ERROR_KNOWN_LOCATION(ptr noundef nonnull %0, ptr noundef %.015, i64 noundef %56, i64 noundef %57, i64 noundef %56, i64 noundef -1, ptr noundef nonnull %.016)
  br label %58

58:                                               ; preds = %29, %36, %50, %53, %27, %12, %34, %32, %1
  ret i32 -1
}